target datalayout = "e-m:e-p270:32:32-p271:32:32-p272:64:64-i64:64-i128:128-f80:128-n8:16:32:64-S128"
target triple = "x86_64-pc-linux-gnu"

%struct.sqlite3_vtab = type { ptr, i32, ptr }
%struct.sqlite3_vtab_cursor = type { ptr }
%struct.ZipfileTab = type { %struct.sqlite3_vtab, ptr, ptr, ptr, ptr, i64, ptr, ptr, ptr, i64, i64 }
%struct.ZipfileCsr = type { %struct.sqlite3_vtab_cursor, i64, i8, i8, ptr, i64, %struct.ZipfileEOCD, ptr, ptr, ptr }
%struct.ZipfileEOCD = type { i16, i16, i16, i16, i32, i32 }
%struct.ZipfileEntry = type { %struct.ZipfileCDS, i32, ptr, i64, ptr, ptr }
%struct.ZipfileCDS = type { i16, i16, i16, i16, i16, i16, i32, i32, i32, i16, i16, i16, i16, i16, i32, i32, ptr }

; Function Attrs: nounwind uwtable
define internal void @zipfileEntryFree(ptr noundef %0) #0 {
  %2 = alloca ptr, align 8
  store ptr %0, ptr %2, align 8, !tbaa !815
  %3 = load ptr, ptr %2, align 8, !tbaa !815
  %4 = icmp ne ptr %3, null
  br i1 %4, label %5, label %11

5:                                                ; preds = %1
  %6 = load ptr, ptr %2, align 8, !tbaa !815
  %7 = getelementptr inbounds nuw %struct.ZipfileEntry, ptr %6, i32 0, i32 0
  %8 = getelementptr inbounds nuw %struct.ZipfileCDS, ptr %7, i32 0, i32 16
  %9 = load ptr, ptr %8, align 8, !tbaa !833
  call void @sqlite3_free(ptr noundef %9)
  %10 = load ptr, ptr %2, align 8, !tbaa !815
  call void @sqlite3_free(ptr noundef %10)
  br label %11

11:                                               ; preds = %5, %1
  ret void
}

; Function Attrs: nounwind uwtable
define internal void @zipfileResetCursor(ptr noundef %0) #0 {
  %2 = alloca ptr, align 8
  %3 = alloca ptr, align 8
  %4 = alloca ptr, align 8
  store ptr %0, ptr %2, align 8, !tbaa !791
  call void @llvm.lifetime.start.p0(i64 8, ptr %3) #14
  call void @llvm.lifetime.start.p0(i64 8, ptr %4) #14
  %5 = load ptr, ptr %2, align 8, !tbaa !791
  %6 = getelementptr inbounds nuw %struct.ZipfileCsr, ptr %5, i32 0, i32 2
  store i8 0, ptr %6, align 8, !tbaa !809
  %7 = load ptr, ptr %2, align 8, !tbaa !791
  %8 = getelementptr inbounds nuw %struct.ZipfileCsr, ptr %7, i32 0, i32 4
  %9 = load ptr, ptr %8, align 8, !tbaa !807
  %10 = icmp ne ptr %9, null
  br i1 %10, label %11, label %23

11:                                               ; preds = %1
  %12 = load ptr, ptr %2, align 8, !tbaa !791
  %13 = getelementptr inbounds nuw %struct.ZipfileCsr, ptr %12, i32 0, i32 4
  %14 = load ptr, ptr %13, align 8, !tbaa !807
  %15 = call i32 @fclose(ptr noundef %14)
  %16 = load ptr, ptr %2, align 8, !tbaa !791
  %17 = getelementptr inbounds nuw %struct.ZipfileCsr, ptr %16, i32 0, i32 4
  store ptr null, ptr %17, align 8, !tbaa !807
  %18 = load ptr, ptr %2, align 8, !tbaa !791
  %19 = getelementptr inbounds nuw %struct.ZipfileCsr, ptr %18, i32 0, i32 8
  %20 = load ptr, ptr %19, align 8, !tbaa !813
  call void @zipfileEntryFree(ptr noundef %20)
  %21 = load ptr, ptr %2, align 8, !tbaa !791
  %22 = getelementptr inbounds nuw %struct.ZipfileCsr, ptr %21, i32 0, i32 8
  store ptr null, ptr %22, align 8, !tbaa !813
  br label %23

23:                                               ; preds = %11, %1
  %24 = load ptr, ptr %2, align 8, !tbaa !791
  %25 = getelementptr inbounds nuw %struct.ZipfileCsr, ptr %24, i32 0, i32 7
  %26 = load ptr, ptr %25, align 8, !tbaa !804
  store ptr %26, ptr %3, align 8, !tbaa !815
  br label %27

27:                                               ; preds = %35, %23
  %28 = load ptr, ptr %3, align 8, !tbaa !815
  %29 = icmp ne ptr %28, null
  br i1 %29, label %30, label %37

30:                                               ; preds = %27
  %31 = load ptr, ptr %3, align 8, !tbaa !815
  %32 = getelementptr inbounds nuw %struct.ZipfileEntry, ptr %31, i32 0, i32 5
  %33 = load ptr, ptr %32, align 8, !tbaa !821
  store ptr %33, ptr %4, align 8, !tbaa !815
  %34 = load ptr, ptr %3, align 8, !tbaa !815
  call void @zipfileEntryFree(ptr noundef %34)
  br label %35

35:                                               ; preds = %30
  %36 = load ptr, ptr %4, align 8, !tbaa !815
  store ptr %36, ptr %3, align 8, !tbaa !815
  br label %27, !llvm.loop !867

37:                                               ; preds = %27
  call void @llvm.lifetime.end.p0(i64 8, ptr %4) #14
  call void @llvm.lifetime.end.p0(i64 8, ptr %3) #14
  ret void
}

; Function Attrs: nounwind uwtable
define internal i32 @zipfileClose(ptr noundef %0) #0 {
  %2 = alloca ptr, align 8
  %3 = alloca ptr, align 8
  %4 = alloca ptr, align 8
  %5 = alloca ptr, align 8
  store ptr %0, ptr %2, align 8, !tbaa !650
  call void @llvm.lifetime.start.p0(i64 8, ptr %3) #14
  %6 = load ptr, ptr %2, align 8, !tbaa !650
  store ptr %6, ptr %3, align 8, !tbaa !791
  call void @llvm.lifetime.start.p0(i64 8, ptr %4) #14
  %7 = load ptr, ptr %3, align 8, !tbaa !791
  %8 = getelementptr inbounds nuw %struct.ZipfileCsr, ptr %7, i32 0, i32 0
  %9 = getelementptr inbounds nuw %struct.sqlite3_vtab_cursor, ptr %8, i32 0, i32 0
  %10 = load ptr, ptr %9, align 8, !tbaa !798
  store ptr %10, ptr %4, align 8, !tbaa !782
  call void @llvm.lifetime.start.p0(i64 8, ptr %5) #14
  %11 = load ptr, ptr %3, align 8, !tbaa !791
  call void @zipfileResetCursor(ptr noundef %11)
  %12 = load ptr, ptr %4, align 8, !tbaa !782
  %13 = getelementptr inbounds nuw %struct.ZipfileTab, ptr %12, i32 0, i32 4
  store ptr %13, ptr %5, align 8, !tbaa !799
  br label %14

14:                                               ; preds = %20, %1
  %15 = load ptr, ptr %5, align 8, !tbaa !799
  %16 = load ptr, ptr %15, align 8, !tbaa !791
  %17 = load ptr, ptr %3, align 8, !tbaa !791
  %18 = icmp ne ptr %16, %17
  br i1 %18, label %19, label %24

19:                                               ; preds = %14
  br label %20

20:                                               ; preds = %19
  %21 = load ptr, ptr %5, align 8, !tbaa !799
  %22 = load ptr, ptr %21, align 8, !tbaa !791
  %23 = getelementptr inbounds nuw %struct.ZipfileCsr, ptr %22, i32 0, i32 9
  store ptr %23, ptr %5, align 8, !tbaa !799
  br label %14, !llvm.loop !801

24:                                               ; preds = %14
  %25 = load ptr, ptr %3, align 8, !tbaa !791
  %26 = getelementptr inbounds nuw %struct.ZipfileCsr, ptr %25, i32 0, i32 9
  %27 = load ptr, ptr %26, align 8, !tbaa !797
  %28 = load ptr, ptr %5, align 8, !tbaa !799
  store ptr %27, ptr %28, align 8, !tbaa !791
  %29 = load ptr, ptr %3, align 8, !tbaa !791
  call void @sqlite3_free(ptr noundef %29)
  call void @llvm.lifetime.end.p0(i64 8, ptr %5) #14
  call void @llvm.lifetime.end.p0(i64 8, ptr %4) #14
  call void @llvm.lifetime.end.p0(i64 8, ptr %3) #14
  ret i32 0
}