; Function Attrs: nounwind uwtable
define internal noundef i32 @zipfileClose(ptr noundef initializes((16, 17)) %0) #2 {
  %2 = load ptr, ptr %0, align 8, !tbaa !844
  %3 = getelementptr inbounds nuw i8, ptr %0, i64 16
  store i8 0, ptr %3, align 8, !tbaa !845
  %4 = getelementptr inbounds nuw i8, ptr %0, i64 24
  %5 = load ptr, ptr %4, align 8, !tbaa !846
  %.not.i = icmp eq ptr %5, null
  br i1 %.not.i, label %13, label %6

6:                                                ; preds = %1
  %7 = tail call i32 @fclose(ptr noundef nonnull %5)
  store ptr null, ptr %4, align 8, !tbaa !846
  %8 = getelementptr inbounds nuw i8, ptr %0, i64 64
  %9 = load ptr, ptr %8, align 8, !tbaa !847
  %.not.i.i = icmp eq ptr %9, null
  br i1 %.not.i.i, label %zipfileEntryFree.exit.i, label %10

10:                                               ; preds = %6
  %11 = getelementptr inbounds nuw i8, ptr %9, i64 48
  %12 = load ptr, ptr %11, align 8, !tbaa !836
  tail call void @sqlite3_free(ptr noundef %12) #43
  tail call void @sqlite3_free(ptr noundef nonnull %9) #43
  br label %zipfileEntryFree.exit.i

zipfileEntryFree.exit.i:                          ; preds = %10, %6
  store ptr null, ptr %8, align 8, !tbaa !847
  br label %13

13:                                               ; preds = %zipfileEntryFree.exit.i, %1
  %14 = getelementptr inbounds nuw i8, ptr %0, i64 56
  %15 = load ptr, ptr %14, align 8, !tbaa !848
  %.not1215.i = icmp eq ptr %15, null
  br i1 %.not1215.i, label %zipfileResetCursor.exit, label %zipfileEntryFree.exit14.i

zipfileEntryFree.exit14.i:                        ; preds = %13, %zipfileEntryFree.exit14.i
  %.016.i = phi ptr [ %17, %zipfileEntryFree.exit14.i ], [ %15, %13 ]
  %16 = getelementptr inbounds nuw i8, ptr %.016.i, i64 88
  %17 = load ptr, ptr %16, align 8, !tbaa !833
  %18 = getelementptr inbounds nuw i8, ptr %.016.i, i64 48
  %19 = load ptr, ptr %18, align 8, !tbaa !836
  tail call void @sqlite3_free(ptr noundef %19) #43
  tail call void @sqlite3_free(ptr noundef nonnull %.016.i) #43
  %.not12.i = icmp eq ptr %17, null
  br i1 %.not12.i, label %zipfileResetCursor.exit, label %zipfileEntryFree.exit14.i, !llvm.loop !849

zipfileResetCursor.exit:                          ; preds = %zipfileEntryFree.exit14.i, %13
  %20 = getelementptr inbounds nuw i8, ptr %2, i64 48
  br label %21

21:                                               ; preds = %21, %zipfileResetCursor.exit
  %.0 = phi ptr [ %20, %zipfileResetCursor.exit ], [ %23, %21 ]
  %22 = load ptr, ptr %.0, align 8, !tbaa !850
  %.not = icmp eq ptr %22, %0
  %23 = getelementptr inbounds nuw i8, ptr %22, i64 72
  br i1 %.not, label %24, label %21, !llvm.loop !851

24:                                               ; preds = %21
  %25 = getelementptr inbounds nuw i8, ptr %0, i64 72
  %26 = load ptr, ptr %25, align 8, !tbaa !843
  store ptr %26, ptr %.0, align 8, !tbaa !850
  tail call void @sqlite3_free(ptr noundef nonnull %0) #43
  ret i32 0
}